target datalayout = "e-m:e-p270:32:32-p271:32:32-p272:64:64-i64:64-i128:128-f80:128-n8:16:32:64-S128"
target triple = "x86_64-pc-linux-gnu"

%struct.HashJoinTableData = type { i32, i32, i32, i32, i32, %union.anon, i8, ptr, i32, i32, ptr, i32, i32, i32, i32, i8, double, double, double, ptr, ptr, i64, i64, i64, i64, i64, ptr, ptr, ptr, ptr, ptr, ptr, ptr, ptr, i64 }
%union.anon = type { ptr }
%struct.ParallelHashJoinState = type { i64, i64, i32, i32, i32, i32, i64, i32, i64, i64, %struct.LWLock, %struct.Barrier, %struct.Barrier, %struct.Barrier, %struct.pg_atomic_uint32, %struct.SharedFileSet }
%struct.LWLock = type { i16, %struct.pg_atomic_uint32, %struct.proclist_head }
%struct.proclist_head = type { i32, i32 }
%struct.Barrier = type { i8, i32, i32, i32, i32, i8, %struct.ConditionVariable }
%struct.ConditionVariable = type { i8, %struct.proclist_head }
%struct.pg_atomic_uint32 = type { i32 }
%struct.SharedFileSet = type { %struct.FileSet, i8, i32 }
%struct.FileSet = type { i32, i32, i32, [8 x i32] }
%struct.ParallelHashJoinBatchAccessor = type { ptr, i64, i64, i64, i64, i64, i8, i8, i8, ptr, ptr }
%struct.ParallelHashJoinBatch = type { i64, %struct.Barrier, i64, i64, i64, i64, i64, i8, i8 }
%struct.HashMemoryChunkData = type { i32, i64, i64, %union.anon.1 }
%union.anon.1 = type { ptr }

; Function Attrs: nounwind uwtable
define internal ptr @ExecParallelHashTupleAlloc(ptr noundef %0, i64 noundef %1, ptr noundef %2) #0 {
  %4 = alloca ptr, align 8
  %5 = alloca ptr, align 8
  %6 = alloca i64, align 8
  %7 = alloca ptr, align 8
  %8 = alloca ptr, align 8
  %9 = alloca i64, align 8
  %10 = alloca ptr, align 8
  %11 = alloca i64, align 8
  %12 = alloca ptr, align 8
  %13 = alloca i32, align 4
  %14 = alloca i32, align 4
  %15 = alloca i32, align 4
  store ptr %0, ptr %5, align 8
  store i64 %1, ptr %6, align 8
  store ptr %2, ptr %7, align 8
  call void @llvm.lifetime.start.p0(i64 8, ptr %8) #9
  %16 = load ptr, ptr %5, align 8
  %17 = getelementptr inbounds nuw %struct.HashJoinTableData, ptr %16, i32 0, i32 32
  %18 = load ptr, ptr %17, align 8
  store ptr %18, ptr %8, align 8
  call void @llvm.lifetime.start.p0(i64 8, ptr %9) #9
  call void @llvm.lifetime.start.p0(i64 8, ptr %10) #9
  call void @llvm.lifetime.start.p0(i64 8, ptr %11) #9
  call void @llvm.lifetime.start.p0(i64 8, ptr %12) #9
  call void @llvm.lifetime.start.p0(i64 4, ptr %13) #9
  %19 = load ptr, ptr %5, align 8
  %20 = getelementptr inbounds nuw %struct.HashJoinTableData, ptr %19, i32 0, i32 12
  %21 = load i32, ptr %20, align 4
  store i32 %21, ptr %13, align 4
  %22 = load i64, ptr %6, align 8
  %23 = add i64 %22, 7
  %24 = and i64 %23, -8
  store i64 %24, ptr %6, align 8
  %25 = load ptr, ptr %5, align 8
  %26 = getelementptr inbounds nuw %struct.HashJoinTableData, ptr %25, i32 0, i32 30
  %27 = load ptr, ptr %26, align 8
  store ptr %27, ptr %10, align 8
  %28 = load ptr, ptr %10, align 8
  %29 = icmp ne ptr %28, null
  br i1 %29, label %30, label %66

30:                                               ; preds = %3
  %31 = load i64, ptr %6, align 8
  %32 = icmp ule i64 %31, 8192
  br i1 %32, label %33, label %66

33:                                               ; preds = %30
  %34 = load ptr, ptr %10, align 8
  %35 = getelementptr inbounds nuw %struct.HashMemoryChunkData, ptr %34, i32 0, i32 1
  %36 = load i64, ptr %35, align 8
  %37 = load ptr, ptr %10, align 8
  %38 = getelementptr inbounds nuw %struct.HashMemoryChunkData, ptr %37, i32 0, i32 2
  %39 = load i64, ptr %38, align 8
  %40 = sub i64 %36, %39
  %41 = load i64, ptr %6, align 8
  %42 = icmp uge i64 %40, %41
  br i1 %42, label %43, label %66

43:                                               ; preds = %33
  %44 = load ptr, ptr %5, align 8
  %45 = getelementptr inbounds nuw %struct.HashJoinTableData, ptr %44, i32 0, i32 34
  %46 = load i64, ptr %45, align 8
  store i64 %46, ptr %9, align 8
  %47 = load i64, ptr %9, align 8
  %48 = add i64 %47, 32
  %49 = load ptr, ptr %10, align 8
  %50 = getelementptr inbounds nuw %struct.HashMemoryChunkData, ptr %49, i32 0, i32 2
  %51 = load i64, ptr %50, align 8
  %52 = add i64 %48, %51
  %53 = load ptr, ptr %7, align 8
  store i64 %52, ptr %53, align 8
  %54 = load ptr, ptr %10, align 8
  %55 = getelementptr inbounds nuw i8, ptr %54, i64 32
  %56 = load ptr, ptr %10, align 8
  %57 = getelementptr inbounds nuw %struct.HashMemoryChunkData, ptr %56, i32 0, i32 2
  %58 = load i64, ptr %57, align 8
  %59 = getelementptr inbounds nuw i8, ptr %55, i64 %58
  store ptr %59, ptr %12, align 8
  %60 = load i64, ptr %6, align 8
  %61 = load ptr, ptr %10, align 8
  %62 = getelementptr inbounds nuw %struct.HashMemoryChunkData, ptr %61, i32 0, i32 2
  %63 = load i64, ptr %62, align 8
  %64 = add i64 %63, %60
  store i64 %64, ptr %62, align 8
  %65 = load ptr, ptr %12, align 8
  store ptr %65, ptr %4, align 8
  store i32 1, ptr %14, align 4
  br label %282

66:                                               ; preds = %33, %30, %3
  %67 = load ptr, ptr %8, align 8
  %68 = getelementptr inbounds nuw %struct.ParallelHashJoinState, ptr %67, i32 0, i32 10
  %69 = call zeroext i1 @LWLockAcquire(ptr noundef %68, i32 noundef 0)
  %70 = load ptr, ptr %8, align 8
  %71 = getelementptr inbounds nuw %struct.ParallelHashJoinState, ptr %70, i32 0, i32 5
  %72 = load i32, ptr %71, align 4
  %73 = icmp eq i32 %72, 2
  br i1 %73, label %79, label %74

74:                                               ; preds = %66
  %75 = load ptr, ptr %8, align 8
  %76 = getelementptr inbounds nuw %struct.ParallelHashJoinState, ptr %75, i32 0, i32 5
  %77 = load i32, ptr %76, align 4
  %78 = icmp eq i32 %77, 1
  br i1 %78, label %79, label %98

79:                                               ; preds = %74, %66
  call void @llvm.lifetime.start.p0(i64 4, ptr %15) #9
  %80 = load ptr, ptr %8, align 8
  %81 = getelementptr inbounds nuw %struct.ParallelHashJoinState, ptr %80, i32 0, i32 5
  %82 = load i32, ptr %81, align 4
  store i32 %82, ptr %15, align 4
  %83 = load ptr, ptr %5, align 8
  %84 = getelementptr inbounds nuw %struct.HashJoinTableData, ptr %83, i32 0, i32 30
  store ptr null, ptr %84, align 8
  %85 = load ptr, ptr %8, align 8
  %86 = getelementptr inbounds nuw %struct.ParallelHashJoinState, ptr %85, i32 0, i32 10
  call void @LWLockRelease(ptr noundef %86)
  %87 = load i32, ptr %15, align 4
  %88 = icmp eq i32 %87, 2
  br i1 %88, label %89, label %91

89:                                               ; preds = %79
  %90 = load ptr, ptr %5, align 8
  call void @ExecParallelHashIncreaseNumBatches(ptr noundef %90)
  br label %97

91:                                               ; preds = %79
  %92 = load i32, ptr %15, align 4
  %93 = icmp eq i32 %92, 1
  br i1 %93, label %94, label %96

94:                                               ; preds = %91
  %95 = load ptr, ptr %5, align 8
  call void @ExecParallelHashIncreaseNumBuckets(ptr noundef %95)
  br label %96

96:                                               ; preds = %94, %91
  br label %97

97:                                               ; preds = %96, %89
  store ptr null, ptr %4, align 8
  store i32 1, ptr %14, align 4
  call void @llvm.lifetime.end.p0(i64 4, ptr %15) #9
  br label %282

98:                                               ; preds = %74
  %99 = load i64, ptr %6, align 8
  %100 = icmp ugt i64 %99, 8192
  br i1 %100, label %101, label %104

101:                                              ; preds = %98
  %102 = load i64, ptr %6, align 8
  %103 = add i64 %102, 32
  store i64 %103, ptr %11, align 8
  br label %105

104:                                              ; preds = %98
  store i64 32768, ptr %11, align 8
  br label %105

105:                                              ; preds = %104, %101
  %106 = load ptr, ptr %8, align 8
  %107 = getelementptr inbounds nuw %struct.ParallelHashJoinState, ptr %106, i32 0, i32 5
  %108 = load i32, ptr %107, align 4
  %109 = icmp ne i32 %108, 3
  br i1 %109, label %110, label %205

110:                                              ; preds = %105
  %111 = load ptr, ptr %5, align 8
  %112 = getelementptr inbounds nuw %struct.HashJoinTableData, ptr %111, i32 0, i32 33
  %113 = load ptr, ptr %112, align 8
  %114 = getelementptr inbounds %struct.ParallelHashJoinBatchAccessor, ptr %113, i64 0
  %115 = getelementptr inbounds nuw %struct.ParallelHashJoinBatchAccessor, ptr %114, i32 0, i32 6
  %116 = load i8, ptr %115, align 8, !range !4, !noundef !5
  %117 = trunc i8 %116 to i1
  br i1 %117, label %118, label %145

118:                                              ; preds = %110
  %119 = load ptr, ptr %5, align 8
  %120 = getelementptr inbounds nuw %struct.HashJoinTableData, ptr %119, i32 0, i32 33
  %121 = load ptr, ptr %120, align 8
  %122 = getelementptr inbounds %struct.ParallelHashJoinBatchAccessor, ptr %121, i64 0
  %123 = getelementptr inbounds nuw %struct.ParallelHashJoinBatchAccessor, ptr %122, i32 0, i32 0
  %124 = load ptr, ptr %123, align 8
  %125 = getelementptr inbounds nuw %struct.ParallelHashJoinBatch, ptr %124, i32 0, i32 3
  %126 = load i64, ptr %125, align 8
  %127 = load i64, ptr %11, align 8
  %128 = add i64 %126, %127
  %129 = load ptr, ptr %8, align 8
  %130 = getelementptr inbounds nuw %struct.ParallelHashJoinState, ptr %129, i32 0, i32 8
  %131 = load i64, ptr %130, align 8
  %132 = icmp ugt i64 %128, %131
  br i1 %132, label %133, label %145

133:                                              ; preds = %118
  %134 = load ptr, ptr %8, align 8
  %135 = getelementptr inbounds nuw %struct.ParallelHashJoinState, ptr %134, i32 0, i32 5
  store i32 2, ptr %135, align 4
  %136 = load ptr, ptr %5, align 8
  %137 = getelementptr inbounds nuw %struct.HashJoinTableData, ptr %136, i32 0, i32 33
  %138 = load ptr, ptr %137, align 8
  %139 = getelementptr inbounds %struct.ParallelHashJoinBatchAccessor, ptr %138, i64 0
  %140 = getelementptr inbounds nuw %struct.ParallelHashJoinBatchAccessor, ptr %139, i32 0, i32 0
  %141 = load ptr, ptr %140, align 8
  %142 = getelementptr inbounds nuw %struct.ParallelHashJoinBatch, ptr %141, i32 0, i32 7
  store i8 1, ptr %142, align 8
  %143 = load ptr, ptr %8, align 8
  %144 = getelementptr inbounds nuw %struct.ParallelHashJoinState, ptr %143, i32 0, i32 10
  call void @LWLockRelease(ptr noundef %144)
  store ptr null, ptr %4, align 8
  store i32 1, ptr %14, align 4
  br label %282

145:                                              ; preds = %118, %110
  %146 = load ptr, ptr %5, align 8
  %147 = getelementptr inbounds nuw %struct.HashJoinTableData, ptr %146, i32 0, i32 11
  %148 = load i32, ptr %147, align 8
  %149 = icmp eq i32 %148, 1
  br i1 %149, label %150, label %204

150:                                              ; preds = %145
  %151 = load ptr, ptr %5, align 8
  %152 = getelementptr inbounds nuw %struct.HashJoinTableData, ptr %151, i32 0, i32 33
  %153 = load ptr, ptr %152, align 8
  %154 = getelementptr inbounds %struct.ParallelHashJoinBatchAccessor, ptr %153, i64 0
  %155 = getelementptr inbounds nuw %struct.ParallelHashJoinBatchAccessor, ptr %154, i32 0, i32 2
  %156 = load i64, ptr %155, align 8
  %157 = load ptr, ptr %5, align 8
  %158 = getelementptr inbounds nuw %struct.HashJoinTableData, ptr %157, i32 0, i32 33
  %159 = load ptr, ptr %158, align 8
  %160 = getelementptr inbounds %struct.ParallelHashJoinBatchAccessor, ptr %159, i64 0
  %161 = getelementptr inbounds nuw %struct.ParallelHashJoinBatchAccessor, ptr %160, i32 0, i32 0
  %162 = load ptr, ptr %161, align 8
  %163 = getelementptr inbounds nuw %struct.ParallelHashJoinBatch, ptr %162, i32 0, i32 5
  %164 = load i64, ptr %163, align 8
  %165 = add i64 %164, %156
  store i64 %165, ptr %163, align 8
  %166 = load ptr, ptr %5, align 8
  %167 = getelementptr inbounds nuw %struct.HashJoinTableData, ptr %166, i32 0, i32 33
  %168 = load ptr, ptr %167, align 8
  %169 = getelementptr inbounds %struct.ParallelHashJoinBatchAccessor, ptr %168, i64 0
  %170 = getelementptr inbounds nuw %struct.ParallelHashJoinBatchAccessor, ptr %169, i32 0, i32 2
  store i64 0, ptr %170, align 8
  %171 = load ptr, ptr %5, align 8
  %172 = getelementptr inbounds nuw %struct.HashJoinTableData, ptr %171, i32 0, i32 33
  %173 = load ptr, ptr %172, align 8
  %174 = getelementptr inbounds %struct.ParallelHashJoinBatchAccessor, ptr %173, i64 0
  %175 = getelementptr inbounds nuw %struct.ParallelHashJoinBatchAccessor, ptr %174, i32 0, i32 0
  %176 = load ptr, ptr %175, align 8
  %177 = getelementptr inbounds nuw %struct.ParallelHashJoinBatch, ptr %176, i32 0, i32 5
  %178 = load i64, ptr %177, align 8
  %179 = add i64 %178, 1
  %180 = load ptr, ptr %5, align 8
  %181 = getelementptr inbounds nuw %struct.HashJoinTableData, ptr %180, i32 0, i32 0
  %182 = load i32, ptr %181, align 8
  %183 = mul i32 %182, 1
  %184 = sext i32 %183 to i64
  %185 = icmp ugt i64 %179, %184
  br i1 %185, label %186, label %203

186:                                              ; preds = %150
  %187 = load ptr, ptr %5, align 8
  %188 = getelementptr inbounds nuw %struct.HashJoinTableData, ptr %187, i32 0, i32 0
  %189 = load i32, ptr %188, align 8
  %190 = icmp slt i32 %189, 1073741823
  br i1 %190, label %191, label %203

191:                                              ; preds = %186
  %192 = load ptr, ptr %5, align 8
  %193 = getelementptr inbounds nuw %struct.HashJoinTableData, ptr %192, i32 0, i32 0
  %194 = load i32, ptr %193, align 8
  %195 = mul i32 %194, 2
  %196 = sext i32 %195 to i64
  %197 = icmp ule i64 %196, 134217727
  br i1 %197, label %198, label %203

198:                                              ; preds = %191
  %199 = load ptr, ptr %8, align 8
  %200 = getelementptr inbounds nuw %struct.ParallelHashJoinState, ptr %199, i32 0, i32 5
  store i32 1, ptr %200, align 4
  %201 = load ptr, ptr %8, align 8
  %202 = getelementptr inbounds nuw %struct.ParallelHashJoinState, ptr %201, i32 0, i32 10
  call void @LWLockRelease(ptr noundef %202)
  store ptr null, ptr %4, align 8
  store i32 1, ptr %14, align 4
  br label %282

203:                                              ; preds = %191, %186, %150
  br label %204

204:                                              ; preds = %203, %145
  br label %205

205:                                              ; preds = %204, %105
  %206 = load ptr, ptr %5, align 8
  %207 = getelementptr inbounds nuw %struct.HashJoinTableData, ptr %206, i32 0, i32 31
  %208 = load ptr, ptr %207, align 8
  %209 = load i64, ptr %11, align 8
  %210 = call i64 @dsa_allocate_extended(ptr noundef %208, i64 noundef %209, i32 noundef 0)
  store i64 %210, ptr %9, align 8
  %211 = load i64, ptr %11, align 8
  %212 = load ptr, ptr %5, align 8
  %213 = getelementptr inbounds nuw %struct.HashJoinTableData, ptr %212, i32 0, i32 33
  %214 = load ptr, ptr %213, align 8
  %215 = load i32, ptr %13, align 4
  %216 = sext i32 %215 to i64
  %217 = getelementptr inbounds %struct.ParallelHashJoinBatchAccessor, ptr %214, i64 %216
  %218 = getelementptr inbounds nuw %struct.ParallelHashJoinBatchAccessor, ptr %217, i32 0, i32 0
  %219 = load ptr, ptr %218, align 8
  %220 = getelementptr inbounds nuw %struct.ParallelHashJoinBatch, ptr %219, i32 0, i32 3
  %221 = load i64, ptr %220, align 8
  %222 = add i64 %221, %211
  store i64 %222, ptr %220, align 8
  %223 = load ptr, ptr %5, align 8
  %224 = getelementptr inbounds nuw %struct.HashJoinTableData, ptr %223, i32 0, i32 33
  %225 = load ptr, ptr %224, align 8
  %226 = load i32, ptr %13, align 4
  %227 = sext i32 %226 to i64
  %228 = getelementptr inbounds %struct.ParallelHashJoinBatchAccessor, ptr %225, i64 %227
  %229 = getelementptr inbounds nuw %struct.ParallelHashJoinBatchAccessor, ptr %228, i32 0, i32 6
  store i8 1, ptr %229, align 8
  %230 = load ptr, ptr %5, align 8
  %231 = getelementptr inbounds nuw %struct.HashJoinTableData, ptr %230, i32 0, i32 31
  %232 = load ptr, ptr %231, align 8
  %233 = load i64, ptr %9, align 8
  %234 = call ptr @dsa_get_address(ptr noundef %232, i64 noundef %233)
  store ptr %234, ptr %10, align 8
  %235 = load i64, ptr %9, align 8
  %236 = add i64 %235, 32
  %237 = load ptr, ptr %7, align 8
  store i64 %236, ptr %237, align 8
  %238 = load i64, ptr %11, align 8
  %239 = sub i64 %238, 32
  %240 = load ptr, ptr %10, align 8
  %241 = getelementptr inbounds nuw %struct.HashMemoryChunkData, ptr %240, i32 0, i32 1
  store i64 %239, ptr %241, align 8
  %242 = load i64, ptr %6, align 8
  %243 = load ptr, ptr %10, align 8
  %244 = getelementptr inbounds nuw %struct.HashMemoryChunkData, ptr %243, i32 0, i32 2
  store i64 %242, ptr %244, align 8
  %245 = load ptr, ptr %5, align 8
  %246 = getelementptr inbounds nuw %struct.HashJoinTableData, ptr %245, i32 0, i32 33
  %247 = load ptr, ptr %246, align 8
  %248 = load i32, ptr %13, align 4
  %249 = sext i32 %248 to i64
  %250 = getelementptr inbounds %struct.ParallelHashJoinBatchAccessor, ptr %247, i64 %249
  %251 = getelementptr inbounds nuw %struct.ParallelHashJoinBatchAccessor, ptr %250, i32 0, i32 0
  %252 = load ptr, ptr %251, align 8
  %253 = getelementptr inbounds nuw %struct.ParallelHashJoinBatch, ptr %252, i32 0, i32 2
  %254 = load i64, ptr %253, align 8
  %255 = load ptr, ptr %10, align 8
  %256 = getelementptr inbounds nuw %struct.HashMemoryChunkData, ptr %255, i32 0, i32 3
  store i64 %254, ptr %256, align 8
  %257 = load i64, ptr %9, align 8
  %258 = load ptr, ptr %5, align 8
  %259 = getelementptr inbounds nuw %struct.HashJoinTableData, ptr %258, i32 0, i32 33
  %260 = load ptr, ptr %259, align 8
  %261 = load i32, ptr %13, align 4
  %262 = sext i32 %261 to i64
  %263 = getelementptr inbounds %struct.ParallelHashJoinBatchAccessor, ptr %260, i64 %262
  %264 = getelementptr inbounds nuw %struct.ParallelHashJoinBatchAccessor, ptr %263, i32 0, i32 0
  %265 = load ptr, ptr %264, align 8
  %266 = getelementptr inbounds nuw %struct.ParallelHashJoinBatch, ptr %265, i32 0, i32 2
  store i64 %257, ptr %266, align 8
  %267 = load i64, ptr %6, align 8
  %268 = icmp ule i64 %267, 8192
  br i1 %268, label %269, label %276

269:                                              ; preds = %205
  %270 = load ptr, ptr %10, align 8
  %271 = load ptr, ptr %5, align 8
  %272 = getelementptr inbounds nuw %struct.HashJoinTableData, ptr %271, i32 0, i32 30
  store ptr %270, ptr %272, align 8
  %273 = load i64, ptr %9, align 8
  %274 = load ptr, ptr %5, align 8
  %275 = getelementptr inbounds nuw %struct.HashJoinTableData, ptr %274, i32 0, i32 34
  store i64 %273, ptr %275, align 8
  br label %276

276:                                              ; preds = %269, %205
  %277 = load ptr, ptr %8, align 8
  %278 = getelementptr inbounds nuw %struct.ParallelHashJoinState, ptr %277, i32 0, i32 10
  call void @LWLockRelease(ptr noundef %278)
  %279 = load ptr, ptr %10, align 8
  %280 = getelementptr inbounds nuw i8, ptr %279, i64 32
  store ptr %280, ptr %12, align 8
  %281 = load ptr, ptr %12, align 8
  store ptr %281, ptr %4, align 8
  store i32 1, ptr %14, align 4
  br label %282

282:                                              ; preds = %276, %198, %133, %97, %43
  call void @llvm.lifetime.end.p0(i64 4, ptr %13) #9
  call void @llvm.lifetime.end.p0(i64 8, ptr %12) #9
  call void @llvm.lifetime.end.p0(i64 8, ptr %11) #9
  call void @llvm.lifetime.end.p0(i64 8, ptr %10) #9
  call void @llvm.lifetime.end.p0(i64 8, ptr %9) #9
  call void @llvm.lifetime.end.p0(i64 8, ptr %8) #9
  %283 = load ptr, ptr %4, align 8
  ret ptr %283
}