; Function Attrs: nounwind uwtable
define internal fastcc ptr @ExecParallelHashTupleAlloc(ptr noundef %0, i64 noundef range(i64 16, 4294967312) %1, ptr noundef nonnull writeonly captures(none) %2) unnamed_addr #0 {
  %4 = getelementptr inbounds nuw i8, ptr %0, i64 216
  %5 = load ptr, ptr %4, align 8
  %6 = getelementptr inbounds nuw i8, ptr %0, i64 68
  %7 = load i32, ptr %6, align 4
  %8 = add nuw nsw i64 %1, 7
  %9 = and i64 %8, 17179869176
  %10 = getelementptr inbounds nuw i8, ptr %0, i64 200
  %11 = load ptr, ptr %10, align 8
  %12 = icmp ne ptr %11, null
  %13 = icmp samesign ult i64 %9, 8193
  %or.cond = select i1 %12, i1 %13, i1 false
  br i1 %or.cond, label %14, label %29

14:                                               ; preds = %3
  %15 = getelementptr inbounds nuw i8, ptr %11, i64 8
  %16 = load i64, ptr %15, align 8
  %17 = getelementptr inbounds nuw i8, ptr %11, i64 16
  %18 = load i64, ptr %17, align 8
  %19 = sub i64 %16, %18
  %.not = icmp ult i64 %19, %9
  br i1 %.not, label %29, label %20

20:                                               ; preds = %14
  %21 = getelementptr inbounds nuw i8, ptr %0, i64 232
  %22 = load i64, ptr %21, align 8
  %23 = add i64 %18, 32
  %24 = add i64 %23, %22
  store i64 %24, ptr %2, align 8
  %25 = getelementptr inbounds nuw i8, ptr %11, i64 32
  %26 = load i64, ptr %17, align 8
  %27 = getelementptr inbounds nuw i8, ptr %25, i64 %26
  %28 = add i64 %26, %9
  store i64 %28, ptr %17, align 8
  br label %117

29:                                               ; preds = %14, %3
  %30 = getelementptr inbounds nuw i8, ptr %5, i64 64
  %31 = tail call zeroext i1 @LWLockAcquire(ptr noundef nonnull %30, i32 noundef 0) #16
  %32 = getelementptr inbounds nuw i8, ptr %5, i64 28
  %33 = load i32, ptr %32, align 4
  %.off = add i32 %33, -1
  %switch = icmp ult i32 %.off, 2
  br i1 %switch, label %34, label %37

34:                                               ; preds = %29
  store ptr null, ptr %10, align 8
  tail call void @LWLockRelease(ptr noundef nonnull %30) #16
  %switch89 = icmp eq i32 %33, 2
  br i1 %switch89, label %35, label %36

35:                                               ; preds = %34
  tail call fastcc void @ExecParallelHashIncreaseNumBatches(ptr noundef nonnull %0)
  br label %117

36:                                               ; preds = %34
  tail call fastcc void @ExecParallelHashIncreaseNumBuckets(ptr noundef nonnull %0)
  br label %117

37:                                               ; preds = %29
  %38 = icmp samesign ugt i64 %9, 8192
  %39 = add nuw nsw i64 %9, 32
  %.078 = select i1 %38, i64 %39, i64 32768
  %.not84 = icmp eq i32 %33, 3
  br i1 %.not84, label %83, label %40

40:                                               ; preds = %37
  %41 = getelementptr inbounds nuw i8, ptr %0, i64 224
  %42 = load ptr, ptr %41, align 8
  %43 = getelementptr inbounds nuw i8, ptr %42, i64 48
  %44 = load i8, ptr %43, align 8, !range !4, !noundef !5
  %45 = trunc nuw i8 %44 to i1
  br i1 %45, label %46, label %58

46:                                               ; preds = %40
  %47 = load ptr, ptr %42, align 8
  %48 = getelementptr inbounds nuw i8, ptr %47, i64 56
  %49 = load i64, ptr %48, align 8
  %50 = add i64 %49, %.078
  %51 = getelementptr inbounds nuw i8, ptr %5, i64 48
  %52 = load i64, ptr %51, align 8
  %53 = icmp ugt i64 %50, %52
  br i1 %53, label %54, label %58

54:                                               ; preds = %46
  store i32 2, ptr %32, align 4
  %55 = load ptr, ptr %41, align 8
  %56 = load ptr, ptr %55, align 8
  %57 = getelementptr inbounds nuw i8, ptr %56, i64 88
  store i8 1, ptr %57, align 8
  tail call void @LWLockRelease(ptr noundef nonnull %30) #16
  br label %117

58:                                               ; preds = %46, %40
  %59 = getelementptr inbounds nuw i8, ptr %0, i64 64
  %60 = load i32, ptr %59, align 8
  %61 = icmp eq i32 %60, 1
  br i1 %61, label %62, label %83

62:                                               ; preds = %58
  %63 = getelementptr inbounds nuw i8, ptr %42, i64 16
  %64 = load i64, ptr %63, align 8
  %65 = load ptr, ptr %42, align 8
  %66 = getelementptr inbounds nuw i8, ptr %65, i64 72
  %67 = load i64, ptr %66, align 8
  %68 = add i64 %67, %64
  store i64 %68, ptr %66, align 8
  %69 = load ptr, ptr %41, align 8
  %70 = getelementptr inbounds nuw i8, ptr %69, i64 16
  store i64 0, ptr %70, align 8
  %71 = load ptr, ptr %41, align 8
  %72 = load ptr, ptr %71, align 8
  %73 = getelementptr inbounds nuw i8, ptr %72, i64 72
  %74 = load i64, ptr %73, align 8
  %75 = add i64 %74, 1
  %76 = load i32, ptr %0, align 8
  %77 = sext i32 %76 to i64
  %78 = icmp ugt i64 %75, %77
  %79 = icmp slt i32 %76, 1073741823
  %or.cond85 = and i1 %79, %78
  %80 = and i32 %76, 2080374784
  %81 = icmp eq i32 %80, 0
  %or.cond87 = and i1 %81, %or.cond85
  br i1 %or.cond87, label %82, label %83

82:                                               ; preds = %62
  store i32 1, ptr %32, align 4
  tail call void @LWLockRelease(ptr noundef nonnull %30) #16
  br label %117

83:                                               ; preds = %58, %62, %37
  %84 = getelementptr inbounds nuw i8, ptr %0, i64 208
  %85 = load ptr, ptr %84, align 8
  %86 = tail call i64 @dsa_allocate_extended(ptr noundef %85, i64 noundef %.078, i32 noundef 0) #16
  %87 = getelementptr inbounds nuw i8, ptr %0, i64 224
  %88 = load ptr, ptr %87, align 8
  %89 = sext i32 %7 to i64
  %90 = getelementptr inbounds %struct.ParallelHashJoinBatchAccessor, ptr %88, i64 %89
  %91 = load ptr, ptr %90, align 8
  %92 = getelementptr inbounds nuw i8, ptr %91, i64 56
  %93 = load i64, ptr %92, align 8
  %94 = add i64 %93, %.078
  store i64 %94, ptr %92, align 8
  %95 = load ptr, ptr %87, align 8
  %96 = getelementptr inbounds %struct.ParallelHashJoinBatchAccessor, ptr %95, i64 %89, i32 6
  store i8 1, ptr %96, align 8
  %97 = load ptr, ptr %84, align 8
  %98 = tail call ptr @dsa_get_address(ptr noundef %97, i64 noundef %86) #16
  %99 = add i64 %86, 32
  store i64 %99, ptr %2, align 8
  %100 = add nsw i64 %.078, -32
  %101 = getelementptr inbounds nuw i8, ptr %98, i64 8
  store i64 %100, ptr %101, align 8
  %102 = getelementptr inbounds nuw i8, ptr %98, i64 16
  store i64 %9, ptr %102, align 8
  %103 = load ptr, ptr %87, align 8
  %104 = getelementptr inbounds %struct.ParallelHashJoinBatchAccessor, ptr %103, i64 %89
  %105 = load ptr, ptr %104, align 8
  %106 = getelementptr inbounds nuw i8, ptr %105, i64 48
  %107 = load i64, ptr %106, align 8
  %108 = getelementptr inbounds nuw i8, ptr %98, i64 24
  store i64 %107, ptr %108, align 8
  %109 = load ptr, ptr %87, align 8
  %110 = getelementptr inbounds %struct.ParallelHashJoinBatchAccessor, ptr %109, i64 %89
  %111 = load ptr, ptr %110, align 8
  %112 = getelementptr inbounds nuw i8, ptr %111, i64 48
  store i64 %86, ptr %112, align 8
  br i1 %13, label %113, label %115

113:                                              ; preds = %83
  store ptr %98, ptr %10, align 8
  %114 = getelementptr inbounds nuw i8, ptr %0, i64 232
  store i64 %86, ptr %114, align 8
  br label %115

115:                                              ; preds = %113, %83
  tail call void @LWLockRelease(ptr noundef nonnull %30) #16
  %116 = getelementptr inbounds nuw i8, ptr %98, i64 32
  br label %117

117:                                              ; preds = %35, %36, %115, %82, %54, %20
  %.0 = phi ptr [ %27, %20 ], [ null, %54 ], [ null, %82 ], [ %116, %115 ], [ null, %36 ], [ null, %35 ]
  ret ptr %.0
}